target datalayout = "e-m:e-p270:32:32-p271:32:32-p272:64:64-i64:64-i128:128-f80:128-n8:16:32:64-S128"
target triple = "x86_64-pc-linux-gnu"

; Function Attrs: mustprogress uwtable
define void @_ZN11LayerDialog21updateTreeWidgetSizesEP11QTreeWidget(ptr noundef %0) #5 align 2 {
  %2 = alloca ptr, align 8
  %3 = alloca i32, align 4
  %4 = alloca i32, align 4
  store ptr %0, ptr %2, align 8
  store i32 0, ptr %3, align 4
  br label %5

5:                                                ; preds = %25, %1
  %6 = load i32, ptr %3, align 4
  %7 = load ptr, ptr %2, align 8
  %8 = call noundef i32 @_ZNK11QTreeWidget11columnCountEv(ptr noundef nonnull align 8 dereferenceable(48) %7)
  %9 = icmp slt i32 %6, %8
  br i1 %9, label %10, label %28

10:                                               ; preds = %5
  %11 = load ptr, ptr %2, align 8
  %12 = load i32, ptr %3, align 4
  %13 = call noundef i32 @_ZNK9QTreeView11columnWidthEi(ptr noundef nonnull align 8 dereferenceable(48) %11, i32 noundef %12)
  store i32 %13, ptr %4, align 4
  %14 = load ptr, ptr %2, align 8
  %15 = load i32, ptr %3, align 4
  call void @_ZN9QTreeView22resizeColumnToContentsEi(ptr noundef nonnull align 8 dereferenceable(48) %14, i32 noundef %15)
  %16 = load ptr, ptr %2, align 8
  %17 = load i32, ptr %3, align 4
  %18 = call noundef i32 @_ZNK9QTreeView11columnWidthEi(ptr noundef nonnull align 8 dereferenceable(48) %16, i32 noundef %17)
  %19 = icmp sgt i32 %18, 200
  br i1 %19, label %20, label %24

20:                                               ; preds = %10
  %21 = load ptr, ptr %2, align 8
  %22 = load i32, ptr %3, align 4
  %23 = load i32, ptr %4, align 4
  call void @_ZN9QTreeView14setColumnWidthEii(ptr noundef nonnull align 8 dereferenceable(48) %21, i32 noundef %22, i32 noundef %23)
  br label %24

24:                                               ; preds = %20, %10
  br label %25

25:                                               ; preds = %24
  %26 = load i32, ptr %3, align 4
  %27 = add nsw i32 %26, 1
  store i32 %27, ptr %3, align 4
  br label %5, !llvm.loop !28

28:                                               ; preds = %5
  ret void
}