; Function Attrs: mustprogress uwtable
define void @_ZN11LayerDialog21updateTreeWidgetSizesEP11QTreeWidget(ptr noundef nonnull %0) local_unnamed_addr #9 align 2 {
  %2 = tail call noundef i32 @_ZNK11QTreeWidget11columnCountEv(ptr noundef nonnull align 8 dereferenceable(48) %0)
  %3 = icmp sgt i32 %2, 0
  br i1 %3, label %.lr.ph, label %._crit_edge

.lr.ph:                                           ; preds = %1, %8
  %.011 = phi i32 [ %9, %8 ], [ 0, %1 ]
  %4 = tail call noundef i32 @_ZNK9QTreeView11columnWidthEi(ptr noundef nonnull align 8 dereferenceable(48) %0, i32 noundef %.011)
  tail call void @_ZN9QTreeView22resizeColumnToContentsEi(ptr noundef nonnull align 8 dereferenceable(48) %0, i32 noundef %.011)
  %5 = tail call noundef i32 @_ZNK9QTreeView11columnWidthEi(ptr noundef nonnull align 8 dereferenceable(48) %0, i32 noundef %.011)
  %6 = icmp sgt i32 %5, 200
  br i1 %6, label %7, label %8

7:                                                ; preds = %.lr.ph
  tail call void @_ZN9QTreeView14setColumnWidthEii(ptr noundef nonnull align 8 dereferenceable(48) %0, i32 noundef %.011, i32 noundef %4)
  br label %8

8:                                                ; preds = %.lr.ph, %7
  %9 = add nuw nsw i32 %.011, 1
  %10 = tail call noundef i32 @_ZNK11QTreeWidget11columnCountEv(ptr noundef nonnull align 8 dereferenceable(48) %0)
  %11 = icmp slt i32 %9, %10
  br i1 %11, label %.lr.ph, label %._crit_edge, !llvm.loop !81

._crit_edge:                                      ; preds = %8, %1
  ret void
}